; Function Attrs: nofree norecurse nosync nounwind memory(read, inaccessiblemem: none) uwtable
define i32 @cuddTimesInDeathRow(ptr noundef readonly captures(none) %0, ptr noundef readnone %1) local_unnamed_addr #5 {
  %3 = getelementptr inbounds nuw i8, ptr %0, i64 424
  %4 = load i32, ptr %3, align 8, !tbaa !47
  %5 = icmp sgt i32 %4, 0
  br i1 %5, label %.lr.ph, label %._crit_edge

.lr.ph:                                           ; preds = %2
  %6 = getelementptr inbounds nuw i8, ptr %0, i64 416
  %7 = load ptr, ptr %6, align 8, !tbaa !39
  %wide.trip.count = zext nneg i32 %4 to i64
  br label %8

8:                                                ; preds = %.lr.ph, %8
  %indvars.iv = phi i64 [ 0, %.lr.ph ], [ %indvars.iv.next, %8 ]
  %.078 = phi i32 [ 0, %.lr.ph ], [ %13, %8 ]
  %9 = getelementptr inbounds nuw ptr, ptr %7, i64 %indvars.iv
  %10 = load ptr, ptr %9, align 8, !tbaa !33
  %11 = icmp eq ptr %1, %10
  %12 = zext i1 %11 to i32
  %13 = add nuw nsw i32 %.078, %12
  %indvars.iv.next = add nuw nsw i64 %indvars.iv, 1
  %exitcond.not = icmp eq i64 %indvars.iv.next, %wide.trip.count
  br i1 %exitcond.not, label %._crit_edge, label %8, !llvm.loop !74

._crit_edge:                                      ; preds = %8, %2
  %.07.lcssa = phi i32 [ 0, %2 ], [ %13, %8 ]
  ret i32 %.07.lcssa
}